; ModuleID = 'bench/openssl/original/aes_wrap.ll'
source_filename = "bench/openssl/original/aes_wrap.ll"
target datalayout = "e-m:e-p270:32:32-p271:32:32-p272:64:64-i64:64-i128:128-f80:128-n8:16:32:64-S128"
target triple = "x86_64-pc-linux-gnu"

; Function Attrs: nounwind uwtable
define i32 @AES_wrap_key(ptr noundef %0, ptr noundef %1, ptr noundef %2, ptr noundef %3, i32 noundef %4) local_unnamed_addr #0 {
  %6 = zext i32 %4 to i64
  %7 = tail call i64 @CRYPTO_128_wrap(ptr noundef %0, ptr noundef %1, ptr noundef %2, ptr noundef %3, i64 noundef %6, ptr noundef nonnull @AES_encrypt) #2
  %8 = trunc i64 %7 to i32
  ret i32 %8
}

declare i64 @CRYPTO_128_wrap(ptr noundef, ptr noundef, ptr noundef, ptr noundef, i64 noundef, ptr noundef) local_unnamed_addr #1

declare void @AES_encrypt(ptr noundef, ptr noundef, ptr noundef) #1

; Function Attrs: nounwind uwtable
define i32 @AES_unwrap_key(ptr noundef %0, ptr noundef %1, ptr noundef %2, ptr noundef %3, i32 noundef %4) local_unnamed_addr #0 {
  %6 = zext i32 %4 to i64
  %7 = tail call i64 @CRYPTO_128_unwrap(ptr noundef %0, ptr noundef %1, ptr noundef %2, ptr noundef %3, i64 noundef %6, ptr noundef nonnull @AES_decrypt) #2
  %8 = trunc i64 %7 to i32
  ret i32 %8
}

declare i64 @CRYPTO_128_unwrap(ptr noundef, ptr noundef, ptr noundef, ptr noundef, i64 noundef, ptr noundef) local_unnamed_addr #1

declare void @AES_decrypt(ptr noundef, ptr noundef, ptr noundef) #1


!llvm.module.flags = !{!0, !1, !2}

!0 = !{i32 1, !"wchar_size", i32 4}
!1 = !{i32 8, !"PIC Level", i32 2}
!2 = !{i32 7, !"uwtable", i32 2}
